; Function Attrs: mustprogress uwtable
define void @_ZNK32pxrInternal_v0_24__pxrReserved__13UsdEditTarget19GetSpecForScenePathERKNS_7SdfPathE(ptr dead_on_unwind noalias writable sret(%"class.pxrInternal_v0_24__pxrReserved__::SdfHandle.52") align 8 %0, ptr noundef nonnull align 8 dereferenceable(72) %1, ptr noundef nonnull align 4 dereferenceable(8) %2) local_unnamed_addr #0 align 2 personality ptr @__gxx_personality_v0 {
  %4 = alloca %"class.pxrInternal_v0_24__pxrReserved__::SdfPath", align 4
  %5 = getelementptr inbounds nuw i8, ptr %1, i64 8
  %6 = load ptr, ptr %5, align 8
  %.not.i.i.i.i.i = icmp eq ptr %6, null
  br i1 %.not.i.i.i.i.i, label %_ZNK32pxrInternal_v0_24__pxrReserved__15TfWeakPtrFacadeINS_9TfWeakPtrENS_8SdfLayerEEcvMS3_KFPS2_vEEv.exit, label %_ZNK32pxrInternal_v0_24__pxrReserved__15TfWeakPtrFacadeINS_9TfWeakPtrENS_8SdfLayerEEcvMS3_KFPS2_vEEv.exit.thread

_ZNK32pxrInternal_v0_24__pxrReserved__15TfWeakPtrFacadeINS_9TfWeakPtrENS_8SdfLayerEEcvMS3_KFPS2_vEEv.exit.thread: ; preds = %3
  %7 = getelementptr inbounds nuw i8, ptr %6, i64 14
  %8 = load i8, ptr %7, align 2
  %9 = trunc i8 %8 to i1
  %10 = load ptr, ptr %1, align 8
  %11 = icmp ne ptr %10, null
  %.not1.i.not = select i1 %9, i1 %11, i1 false
  br i1 %.not1.i.not, label %_ZNK32pxrInternal_v0_24__pxrReserved__15TfWeakPtrFacadeINS_9TfWeakPtrENS_8SdfLayerEEptEv.exit, label %_ZNK32pxrInternal_v0_24__pxrReserved__15TfWeakPtrFacadeINS_9TfWeakPtrENS_8SdfLayerEEcvMS3_KFPS2_vEEv.exit

_ZNK32pxrInternal_v0_24__pxrReserved__15TfWeakPtrFacadeINS_9TfWeakPtrENS_8SdfLayerEEptEv.exit: ; preds = %_ZNK32pxrInternal_v0_24__pxrReserved__15TfWeakPtrFacadeINS_9TfWeakPtrENS_8SdfLayerEEcvMS3_KFPS2_vEEv.exit.thread
  call void @_ZNK32pxrInternal_v0_24__pxrReserved__13UsdEditTarget13MapToSpecPathERKNS_7SdfPathE(ptr dead_on_unwind nonnull writable sret(%"class.pxrInternal_v0_24__pxrReserved__::SdfPath") align 4 %4, ptr noundef nonnull align 8 dereferenceable(72) %1, ptr noundef nonnull align 4 dereferenceable(8) %2)
  invoke void @_ZN32pxrInternal_v0_24__pxrReserved__8SdfLayer15GetObjectAtPathERKNS_7SdfPathE(ptr dead_on_unwind writable sret(%"class.pxrInternal_v0_24__pxrReserved__::SdfHandle.52") align 8 %0, ptr noundef nonnull align 8 dereferenceable(557) %10, ptr noundef nonnull align 4 dereferenceable(8) %4)
          to label %12 unwind label %31

12:                                               ; preds = %_ZNK32pxrInternal_v0_24__pxrReserved__15TfWeakPtrFacadeINS_9TfWeakPtrENS_8SdfLayerEEptEv.exit
  %13 = load i32, ptr %4, align 4
  %.not.i.i = icmp eq i32 %13, 0
  br i1 %.not.i.i, label %_ZN32pxrInternal_v0_24__pxrReserved__7SdfPathD2Ev.exit, label %14

14:                                               ; preds = %12
  %15 = and i32 %13, 255
  %16 = lshr i32 %13, 8
  %17 = zext nneg i32 %15 to i64
  %18 = getelementptr inbounds nuw [257 x ptr], ptr @_ZN32pxrInternal_v0_24__pxrReserved__8Sdf_PoolINS_15Sdf_PathPrimTagELj24ELj8ELj16384EE13_regionStartsE, i64 0, i64 %17
  %19 = load ptr, ptr %18, align 8
  %20 = mul nuw nsw i32 %16, 24
  %21 = zext nneg i32 %20 to i64
  %22 = getelementptr inbounds nuw i8, ptr %19, i64 %21
  %23 = getelementptr inbounds nuw i8, ptr %22, i64 8
  %24 = atomicrmw sub ptr %23, i32 1 seq_cst, align 4
  %25 = and i32 %24, 2147483647
  %26 = icmp eq i32 %25, 1
  br i1 %26, label %27, label %_ZN32pxrInternal_v0_24__pxrReserved__7SdfPathD2Ev.exit

27:                                               ; preds = %14
  invoke void @_ZNK32pxrInternal_v0_24__pxrReserved__12Sdf_PathNode8_DestroyEv(ptr noundef nonnull align 8 dereferenceable(16) %22)
          to label %_ZN32pxrInternal_v0_24__pxrReserved__7SdfPathD2Ev.exit unwind label %28

28:                                               ; preds = %27
  %29 = landingpad { ptr, i32 }
          catch ptr null
  %30 = extractvalue { ptr, i32 } %29, 0
  call void @__clang_call_terminate(ptr %30) #15
  unreachable

31:                                               ; preds = %_ZNK32pxrInternal_v0_24__pxrReserved__15TfWeakPtrFacadeINS_9TfWeakPtrENS_8SdfLayerEEptEv.exit
  %32 = landingpad { ptr, i32 }
          cleanup
  call void @_ZN32pxrInternal_v0_24__pxrReserved__7SdfPathD2Ev(ptr noundef nonnull align 4 dereferenceable(8) %4) #14
  resume { ptr, i32 } %32

_ZNK32pxrInternal_v0_24__pxrReserved__15TfWeakPtrFacadeINS_9TfWeakPtrENS_8SdfLayerEEcvMS3_KFPS2_vEEv.exit: ; preds = %3, %_ZNK32pxrInternal_v0_24__pxrReserved__15TfWeakPtrFacadeINS_9TfWeakPtrENS_8SdfLayerEEcvMS3_KFPS2_vEEv.exit.thread
  store ptr null, ptr %0, align 8
  br label %_ZN32pxrInternal_v0_24__pxrReserved__7SdfPathD2Ev.exit

_ZN32pxrInternal_v0_24__pxrReserved__7SdfPathD2Ev.exit: ; preds = %27, %14, %12, %_ZNK32pxrInternal_v0_24__pxrReserved__15TfWeakPtrFacadeINS_9TfWeakPtrENS_8SdfLayerEEcvMS3_KFPS2_vEEv.exit
  ret void
}